; Function Attrs: mustprogress uwtable
define dso_local void @_Z14DrawPolygonFcnPK6b2Vec2i10b2HexColorPv(ptr noundef readonly captures(none) %0, i32 noundef %1, i32 noundef %2, ptr noundef readonly captures(none) %3) #5 {
  %5 = icmp sgt i32 %1, 0
  br i1 %5, label %.lr.ph.i, label %_ZN4Draw11DrawPolygonEPK6b2Vec2i10b2HexColor.exit

.lr.ph.i:                                         ; preds = %4
  %6 = zext nneg i32 %1 to i64
  %7 = getelementptr %struct.b2Vec2, ptr %0, i64 %6
  %8 = getelementptr i8, ptr %7, i64 -8
  %.sroa.06.0.copyload.i = load <2 x float>, ptr %8, align 4
  %9 = getelementptr inbounds nuw i8, ptr %3, i64 24
  br label %10

10:                                               ; preds = %10, %.lr.ph.i
  %indvars.iv.i = phi i64 [ 0, %.lr.ph.i ], [ %indvars.iv.next.i, %10 ]
  %.sroa.06.013.i = phi <2 x float> [ %.sroa.06.0.copyload.i, %.lr.ph.i ], [ %.sroa.02.0.copyload.i, %10 ]
  %11 = getelementptr inbounds nuw %struct.b2Vec2, ptr %0, i64 %indvars.iv.i
  %.sroa.02.0.copyload.i = load <2 x float>, ptr %11, align 4
  %12 = load ptr, ptr %9, align 8, !tbaa !16
  tail call void @_ZN7GLLines7AddLineE6b2Vec2S0_10b2HexColor(ptr noundef nonnull align 8 dereferenceable(40) %12, <2 x float> %.sroa.06.013.i, <2 x float> %.sroa.02.0.copyload.i, i32 noundef %2)
  %indvars.iv.next.i = add nuw nsw i64 %indvars.iv.i, 1
  %exitcond.not.i = icmp eq i64 %indvars.iv.next.i, %6
  br i1 %exitcond.not.i, label %_ZN4Draw11DrawPolygonEPK6b2Vec2i10b2HexColor.exit, label %10, !llvm.loop !31

_ZN4Draw11DrawPolygonEPK6b2Vec2i10b2HexColor.exit: ; preds = %10, %4
  ret void
}